target datalayout = "e-m:e-p270:32:32-p271:32:32-p272:64:64-i64:64-i128:128-f80:128-n8:16:32:64-S128"
target triple = "x86_64-pc-linux-gnu"

%struct.quicklist = type { ptr, ptr, i64, i64, i64, [0 x %struct.quicklistBookmark] }
%struct.quicklistBookmark = type { ptr, ptr }
%struct.quicklistNode = type { ptr, ptr, ptr, i64, i32 }

; Function Attrs: nounwind uwtable
define dso_local void @__quicklistInsertNode(ptr noundef %0, ptr noundef %1, ptr noundef %2, i32 noundef %3) #0 {
  %5 = alloca ptr, align 8
  %6 = alloca ptr, align 8
  %7 = alloca ptr, align 8
  %8 = alloca i32, align 4
  store ptr %0, ptr %5, align 8, !tbaa !9
  store ptr %1, ptr %6, align 8, !tbaa !12
  store ptr %2, ptr %7, align 8, !tbaa !12
  store i32 %3, ptr %8, align 4, !tbaa !14
  %9 = load i32, ptr %8, align 4, !tbaa !14
  %10 = icmp ne i32 %9, 0
  br i1 %10, label %11, label %48

11:                                               ; preds = %4
  %12 = load ptr, ptr %6, align 8, !tbaa !12
  %13 = load ptr, ptr %7, align 8, !tbaa !12
  %14 = getelementptr inbounds nuw %struct.quicklistNode, ptr %13, i32 0, i32 0
  store ptr %12, ptr %14, align 8, !tbaa !20
  %15 = load ptr, ptr %6, align 8, !tbaa !12
  %16 = icmp ne ptr %15, null
  br i1 %16, label %17, label %37

17:                                               ; preds = %11
  %18 = load ptr, ptr %6, align 8, !tbaa !12
  %19 = getelementptr inbounds nuw %struct.quicklistNode, ptr %18, i32 0, i32 1
  %20 = load ptr, ptr %19, align 8, !tbaa !21
  %21 = load ptr, ptr %7, align 8, !tbaa !12
  %22 = getelementptr inbounds nuw %struct.quicklistNode, ptr %21, i32 0, i32 1
  store ptr %20, ptr %22, align 8, !tbaa !21
  %23 = load ptr, ptr %6, align 8, !tbaa !12
  %24 = getelementptr inbounds nuw %struct.quicklistNode, ptr %23, i32 0, i32 1
  %25 = load ptr, ptr %24, align 8, !tbaa !21
  %26 = icmp ne ptr %25, null
  br i1 %26, label %27, label %33

27:                                               ; preds = %17
  %28 = load ptr, ptr %7, align 8, !tbaa !12
  %29 = load ptr, ptr %6, align 8, !tbaa !12
  %30 = getelementptr inbounds nuw %struct.quicklistNode, ptr %29, i32 0, i32 1
  %31 = load ptr, ptr %30, align 8, !tbaa !21
  %32 = getelementptr inbounds nuw %struct.quicklistNode, ptr %31, i32 0, i32 0
  store ptr %28, ptr %32, align 8, !tbaa !20
  br label %33

33:                                               ; preds = %27, %17
  %34 = load ptr, ptr %7, align 8, !tbaa !12
  %35 = load ptr, ptr %6, align 8, !tbaa !12
  %36 = getelementptr inbounds nuw %struct.quicklistNode, ptr %35, i32 0, i32 1
  store ptr %34, ptr %36, align 8, !tbaa !21
  br label %37

37:                                               ; preds = %33, %11
  %38 = load ptr, ptr %5, align 8, !tbaa !9
  %39 = getelementptr inbounds nuw %struct.quicklist, ptr %38, i32 0, i32 1
  %40 = load ptr, ptr %39, align 8, !tbaa !12
  %41 = load ptr, ptr %6, align 8, !tbaa !12
  %42 = icmp eq ptr %40, %41
  br i1 %42, label %43, label %47

43:                                               ; preds = %37
  %44 = load ptr, ptr %7, align 8, !tbaa !12
  %45 = load ptr, ptr %5, align 8, !tbaa !9
  %46 = getelementptr inbounds nuw %struct.quicklist, ptr %45, i32 0, i32 1
  store ptr %44, ptr %46, align 8, !tbaa !12
  br label %47

47:                                               ; preds = %43, %37
  br label %85

48:                                               ; preds = %4
  %49 = load ptr, ptr %6, align 8, !tbaa !12
  %50 = load ptr, ptr %7, align 8, !tbaa !12
  %51 = getelementptr inbounds nuw %struct.quicklistNode, ptr %50, i32 0, i32 1
  store ptr %49, ptr %51, align 8, !tbaa !21
  %52 = load ptr, ptr %6, align 8, !tbaa !12
  %53 = icmp ne ptr %52, null
  br i1 %53, label %54, label %74

54:                                               ; preds = %48
  %55 = load ptr, ptr %6, align 8, !tbaa !12
  %56 = getelementptr inbounds nuw %struct.quicklistNode, ptr %55, i32 0, i32 0
  %57 = load ptr, ptr %56, align 8, !tbaa !20
  %58 = load ptr, ptr %7, align 8, !tbaa !12
  %59 = getelementptr inbounds nuw %struct.quicklistNode, ptr %58, i32 0, i32 0
  store ptr %57, ptr %59, align 8, !tbaa !20
  %60 = load ptr, ptr %6, align 8, !tbaa !12
  %61 = getelementptr inbounds nuw %struct.quicklistNode, ptr %60, i32 0, i32 0
  %62 = load ptr, ptr %61, align 8, !tbaa !20
  %63 = icmp ne ptr %62, null
  br i1 %63, label %64, label %70

64:                                               ; preds = %54
  %65 = load ptr, ptr %7, align 8, !tbaa !12
  %66 = load ptr, ptr %6, align 8, !tbaa !12
  %67 = getelementptr inbounds nuw %struct.quicklistNode, ptr %66, i32 0, i32 0
  %68 = load ptr, ptr %67, align 8, !tbaa !20
  %69 = getelementptr inbounds nuw %struct.quicklistNode, ptr %68, i32 0, i32 1
  store ptr %65, ptr %69, align 8, !tbaa !21
  br label %70

70:                                               ; preds = %64, %54
  %71 = load ptr, ptr %7, align 8, !tbaa !12
  %72 = load ptr, ptr %6, align 8, !tbaa !12
  %73 = getelementptr inbounds nuw %struct.quicklistNode, ptr %72, i32 0, i32 0
  store ptr %71, ptr %73, align 8, !tbaa !20
  br label %74

74:                                               ; preds = %70, %48
  %75 = load ptr, ptr %5, align 8, !tbaa !9
  %76 = getelementptr inbounds nuw %struct.quicklist, ptr %75, i32 0, i32 0
  %77 = load ptr, ptr %76, align 8, !tbaa !12
  %78 = load ptr, ptr %6, align 8, !tbaa !12
  %79 = icmp eq ptr %77, %78
  br i1 %79, label %80, label %84

80:                                               ; preds = %74
  %81 = load ptr, ptr %7, align 8, !tbaa !12
  %82 = load ptr, ptr %5, align 8, !tbaa !9
  %83 = getelementptr inbounds nuw %struct.quicklist, ptr %82, i32 0, i32 0
  store ptr %81, ptr %83, align 8, !tbaa !12
  br label %84

84:                                               ; preds = %80, %74
  br label %85

85:                                               ; preds = %84, %47
  %86 = load ptr, ptr %5, align 8, !tbaa !9
  %87 = getelementptr inbounds nuw %struct.quicklist, ptr %86, i32 0, i32 3
  %88 = load i64, ptr %87, align 8, !tbaa !5
  %89 = icmp eq i64 %88, 0
  br i1 %89, label %90, label %96

90:                                               ; preds = %85
  %91 = load ptr, ptr %7, align 8, !tbaa !12
  %92 = load ptr, ptr %5, align 8, !tbaa !9
  %93 = getelementptr inbounds nuw %struct.quicklist, ptr %92, i32 0, i32 1
  store ptr %91, ptr %93, align 8, !tbaa !12
  %94 = load ptr, ptr %5, align 8, !tbaa !9
  %95 = getelementptr inbounds nuw %struct.quicklist, ptr %94, i32 0, i32 0
  store ptr %91, ptr %95, align 8, !tbaa !12
  br label %96

96:                                               ; preds = %90, %85
  %97 = load ptr, ptr %5, align 8, !tbaa !9
  %98 = getelementptr inbounds nuw %struct.quicklist, ptr %97, i32 0, i32 3
  %99 = load i64, ptr %98, align 8, !tbaa !5
  %100 = add i64 %99, 1
  store i64 %100, ptr %98, align 8, !tbaa !5
  %101 = load ptr, ptr %6, align 8, !tbaa !12
  %102 = icmp ne ptr %101, null
  br i1 %102, label %103, label %132

103:                                              ; preds = %96
  br label %104

104:                                              ; preds = %103
  %105 = load ptr, ptr %6, align 8, !tbaa !12
  %106 = getelementptr inbounds nuw %struct.quicklistNode, ptr %105, i32 0, i32 4
  %107 = load i32, ptr %106, align 8
  %108 = lshr i32 %107, 20
  %109 = and i32 %108, 1
  %110 = icmp ne i32 %109, 0
  br i1 %110, label %111, label %127

111:                                              ; preds = %104
  br label %112

112:                                              ; preds = %111
  %113 = load ptr, ptr %6, align 8, !tbaa !12
  %114 = icmp ne ptr %113, null
  br i1 %114, label %115, label %125

115:                                              ; preds = %112
  %116 = load ptr, ptr %6, align 8, !tbaa !12
  %117 = getelementptr inbounds nuw %struct.quicklistNode, ptr %116, i32 0, i32 4
  %118 = load i32, ptr %117, align 8
  %119 = lshr i32 %118, 16
  %120 = and i32 %119, 3
  %121 = icmp eq i32 %120, 1
  br i1 %121, label %122, label %125

122:                                              ; preds = %115
  %123 = load ptr, ptr %6, align 8, !tbaa !12
  %124 = call i32 @__quicklistCompressNode(ptr noundef %123)
  br label %125

125:                                              ; preds = %122, %115, %112
  br label %126

126:                                              ; preds = %125
  br label %130

127:                                              ; preds = %104
  %128 = load ptr, ptr %5, align 8, !tbaa !9
  %129 = load ptr, ptr %6, align 8, !tbaa !12
  call void @__quicklistCompress(ptr noundef %128, ptr noundef %129)
  br label %130

130:                                              ; preds = %127, %126
  br label %131

131:                                              ; preds = %130
  br label %132

132:                                              ; preds = %131, %96
  br label %133

133:                                              ; preds = %132
  %134 = load ptr, ptr %7, align 8, !tbaa !12
  %135 = getelementptr inbounds nuw %struct.quicklistNode, ptr %134, i32 0, i32 4
  %136 = load i32, ptr %135, align 8
  %137 = lshr i32 %136, 20
  %138 = and i32 %137, 1
  %139 = icmp ne i32 %138, 0
  br i1 %139, label %140, label %156

140:                                              ; preds = %133
  br label %141

141:                                              ; preds = %140
  %142 = load ptr, ptr %7, align 8, !tbaa !12
  %143 = icmp ne ptr %142, null
  br i1 %143, label %144, label %154

144:                                              ; preds = %141
  %145 = load ptr, ptr %7, align 8, !tbaa !12
  %146 = getelementptr inbounds nuw %struct.quicklistNode, ptr %145, i32 0, i32 4
  %147 = load i32, ptr %146, align 8
  %148 = lshr i32 %147, 16
  %149 = and i32 %148, 3
  %150 = icmp eq i32 %149, 1
  br i1 %150, label %151, label %154

151:                                              ; preds = %144
  %152 = load ptr, ptr %7, align 8, !tbaa !12
  %153 = call i32 @__quicklistCompressNode(ptr noundef %152)
  br label %154

154:                                              ; preds = %151, %144, %141
  br label %155

155:                                              ; preds = %154
  br label %159

156:                                              ; preds = %133
  %157 = load ptr, ptr %5, align 8, !tbaa !9
  %158 = load ptr, ptr %7, align 8, !tbaa !12
  call void @__quicklistCompress(ptr noundef %157, ptr noundef %158)
  br label %159

159:                                              ; preds = %156, %155
  br label %160

160:                                              ; preds = %159
  ret void
}