; Function Attrs: nounwind uwtable
define dso_local void @__quicklistInsertNode(ptr noundef captures(none) %0, ptr noundef %1, ptr noundef %2, i32 noundef %3) local_unnamed_addr #1 {
  %.not = icmp eq i32 %3, 0
  br i1 %.not, label %17, label %5

5:                                                ; preds = %4
  store ptr %1, ptr %2, align 8, !tbaa !23
  %.not51 = icmp eq ptr %1, null
  br i1 %.not51, label %12, label %6

6:                                                ; preds = %5
  %7 = getelementptr inbounds nuw i8, ptr %1, i64 8
  %8 = load ptr, ptr %7, align 8, !tbaa !17
  %9 = getelementptr inbounds nuw i8, ptr %2, i64 8
  store ptr %8, ptr %9, align 8, !tbaa !17
  %.not52 = icmp eq ptr %8, null
  br i1 %.not52, label %11, label %10

10:                                               ; preds = %6
  store ptr %2, ptr %8, align 8, !tbaa !23
  br label %11

11:                                               ; preds = %10, %6
  store ptr %2, ptr %7, align 8, !tbaa !17
  br label %12

12:                                               ; preds = %11, %5
  %13 = getelementptr inbounds nuw i8, ptr %0, i64 8
  %14 = load ptr, ptr %13, align 8, !tbaa !16
  %15 = icmp eq ptr %14, %1
  br i1 %15, label %16, label %28

16:                                               ; preds = %12
  store ptr %2, ptr %13, align 8, !tbaa !16
  br label %28

17:                                               ; preds = %4
  %18 = getelementptr inbounds nuw i8, ptr %2, i64 8
  store ptr %1, ptr %18, align 8, !tbaa !17
  %.not49 = icmp eq ptr %1, null
  br i1 %.not49, label %24, label %19

19:                                               ; preds = %17
  %20 = load ptr, ptr %1, align 8, !tbaa !23
  store ptr %20, ptr %2, align 8, !tbaa !23
  %.not50 = icmp eq ptr %20, null
  br i1 %.not50, label %23, label %21

21:                                               ; preds = %19
  %22 = getelementptr inbounds nuw i8, ptr %20, i64 8
  store ptr %2, ptr %22, align 8, !tbaa !17
  br label %23

23:                                               ; preds = %21, %19
  store ptr %2, ptr %1, align 8, !tbaa !23
  br label %24

24:                                               ; preds = %23, %17
  %25 = load ptr, ptr %0, align 8, !tbaa !16
  %26 = icmp eq ptr %25, %1
  br i1 %26, label %27, label %28

27:                                               ; preds = %24
  store ptr %2, ptr %0, align 8, !tbaa !16
  br label %28

28:                                               ; preds = %24, %27, %12, %16
  %29 = getelementptr inbounds nuw i8, ptr %0, i64 24
  %30 = load i64, ptr %29, align 8, !tbaa !5
  %31 = icmp eq i64 %30, 0
  br i1 %31, label %32, label %34

32:                                               ; preds = %28
  %33 = getelementptr inbounds nuw i8, ptr %0, i64 8
  store ptr %2, ptr %33, align 8, !tbaa !16
  store ptr %2, ptr %0, align 8, !tbaa !16
  br label %34

34:                                               ; preds = %32, %28
  %35 = add i64 %30, 1
  store i64 %35, ptr %29, align 8, !tbaa !5
  %.not53 = icmp eq ptr %1, null
  br i1 %.not53, label %46, label %36

36:                                               ; preds = %34
  %37 = getelementptr inbounds nuw i8, ptr %1, i64 32
  %38 = load i32, ptr %37, align 8
  %39 = and i32 %38, 1048576
  %.not54 = icmp eq i32 %39, 0
  br i1 %.not54, label %45, label %40

40:                                               ; preds = %36
  %41 = and i32 %38, 196608
  %42 = icmp eq i32 %41, 65536
  br i1 %42, label %43, label %46

43:                                               ; preds = %40
  %44 = tail call i32 @__quicklistCompressNode(ptr noundef nonnull %1)
  br label %46

45:                                               ; preds = %36
  tail call void @__quicklistCompress(ptr noundef nonnull %0, ptr noundef nonnull %1)
  br label %46

46:                                               ; preds = %34, %45, %40, %43
  %47 = getelementptr inbounds nuw i8, ptr %2, i64 32
  %48 = load i32, ptr %47, align 8
  %49 = and i32 %48, 1048576
  %.not55 = icmp eq i32 %49, 0
  br i1 %.not55, label %55, label %50

50:                                               ; preds = %46
  %51 = and i32 %48, 196608
  %52 = icmp eq i32 %51, 65536
  br i1 %52, label %53, label %56

53:                                               ; preds = %50
  %54 = tail call i32 @__quicklistCompressNode(ptr noundef nonnull %2)
  br label %56

55:                                               ; preds = %46
  tail call void @__quicklistCompress(ptr noundef nonnull %0, ptr noundef nonnull %2)
  br label %56

56:                                               ; preds = %55, %50, %53
  ret void
}